target datalayout = "e-m:e-p270:32:32-p271:32:32-p272:64:64-i64:64-i128:128-f80:128-n8:16:32:64-S128"
target triple = "x86_64-pc-linux-gnu"

@hf_gryphon_more_filenames = internal global i32 0, align 4
@hf_gryphon_filenames = internal global i32 0, align 4

; Function Attrs: null_pointer_is_valid sspstrong uwtable
define internal i32 @resp_files(ptr noundef %0, i32 noundef %1, ptr noundef %2) #0 {
  %4 = alloca ptr, align 8
  %5 = alloca i32, align 4
  %6 = alloca ptr, align 8
  %7 = alloca i32, align 4
  store ptr %0, ptr %4, align 8
  store i32 %1, ptr %5, align 4
  store ptr %2, ptr %6, align 8
  call void @llvm.lifetime.start.p0(i64 4, ptr %7) #7
  %8 = load ptr, ptr %4, align 8
  %9 = load i32, ptr %5, align 4
  %10 = call i32 @tvb_reported_length_remaining(ptr noundef %8, i32 noundef %9)
  store i32 %10, ptr %7, align 4
  %11 = load ptr, ptr %6, align 8
  %12 = load i32, ptr @hf_gryphon_more_filenames, align 4
  %13 = load ptr, ptr %4, align 8
  %14 = load i32, ptr %5, align 4
  %15 = call ptr @proto_tree_add_item(ptr noundef %11, i32 noundef %12, ptr noundef %13, i32 noundef %14, i32 noundef 1, i32 noundef 0)
  %16 = load ptr, ptr %6, align 8
  %17 = load i32, ptr @hf_gryphon_filenames, align 4
  %18 = load ptr, ptr %4, align 8
  %19 = load i32, ptr %5, align 4
  %20 = add i32 %19, 1
  %21 = load i32, ptr %7, align 4
  %22 = sub i32 %21, 1
  %23 = call ptr @proto_tree_add_item(ptr noundef %16, i32 noundef %17, ptr noundef %18, i32 noundef %20, i32 noundef %22, i32 noundef 0)
  %24 = load i32, ptr %7, align 4
  %25 = load i32, ptr %5, align 4
  %26 = add i32 %25, %24
  store i32 %26, ptr %5, align 4
  %27 = load i32, ptr %5, align 4
  call void @llvm.lifetime.end.p0(i64 4, ptr %7) #7
  ret i32 %27
}